; Function Attrs: mustprogress uwtable
define void @_ZN11t_tabledataC2Eiidb(ptr noundef nonnull align 8 dereferenceable(88) %0, i32 noundef %1, i32 noundef %2, double noundef %3, i1 noundef zeroext %4) unnamed_addr #3 align 2 personality ptr @__gxx_personality_v0 {
  store i32 %1, ptr %0, align 8
  %6 = getelementptr inbounds i8, ptr %0, i64 4
  store i32 %2, ptr %6, align 4
  %7 = getelementptr inbounds i8, ptr %0, i64 8
  store double %3, ptr %7, align 8
  %8 = getelementptr inbounds i8, ptr %0, i64 16
  %9 = getelementptr inbounds i8, ptr %0, i64 40
  %10 = getelementptr inbounds i8, ptr %0, i64 64
  tail call void @llvm.memset.p0.i64(ptr noundef nonnull align 8 dereferenceable(72) %8, i8 0, i64 72, i1 false)
  br i1 %4, label %11, label %_ZNSt6vectorIdSaIdEE6resizeEm.exit11

11:                                               ; preds = %5
  %.not = icmp eq i32 %1, 0
  br i1 %.not, label %_ZNSt6vectorIdSaIdEE6resizeEm.exit, label %12

12:                                               ; preds = %11
  %13 = sext i32 %1 to i64
  invoke void @_ZNSt6vectorIdSaIdEE17_M_default_appendEm(ptr noundef nonnull align 8 dereferenceable(24) %8, i64 noundef %13)
          to label %._ZNSt6vectorIdSaIdEE6resizeEm.exit_crit_edge16 unwind label %44

._ZNSt6vectorIdSaIdEE6resizeEm.exit_crit_edge16:  ; preds = %12
  %.pre = load i32, ptr %0, align 8
  %.phi.trans.insert = getelementptr inbounds i8, ptr %0, i64 48
  %.pre17 = load ptr, ptr %.phi.trans.insert, align 8
  %.pre18 = load ptr, ptr %9, align 8
  %.pre20 = sext i32 %.pre to i64
  br label %_ZNSt6vectorIdSaIdEE6resizeEm.exit

_ZNSt6vectorIdSaIdEE6resizeEm.exit:               ; preds = %11, %._ZNSt6vectorIdSaIdEE6resizeEm.exit_crit_edge16
  %.pre-phi = phi i64 [ %.pre20, %._ZNSt6vectorIdSaIdEE6resizeEm.exit_crit_edge16 ], [ 0, %11 ]
  %14 = phi ptr [ %.pre18, %._ZNSt6vectorIdSaIdEE6resizeEm.exit_crit_edge16 ], [ null, %11 ]
  %15 = phi ptr [ %.pre17, %._ZNSt6vectorIdSaIdEE6resizeEm.exit_crit_edge16 ], [ null, %11 ]
  %16 = getelementptr inbounds i8, ptr %0, i64 48
  %17 = ptrtoint ptr %15 to i64
  %18 = ptrtoint ptr %14 to i64
  %19 = sub i64 %17, %18
  %20 = ashr exact i64 %19, 3
  %21 = icmp ult i64 %20, %.pre-phi
  br i1 %21, label %22, label %24

22:                                               ; preds = %_ZNSt6vectorIdSaIdEE6resizeEm.exit
  %23 = sub nsw i64 %.pre-phi, %20
  invoke void @_ZNSt6vectorIdSaIdEE17_M_default_appendEm(ptr noundef nonnull align 8 dereferenceable(24) %9, i64 noundef %23)
          to label %._ZNSt6vectorIdSaIdEE6resizeEm.exit8_crit_edge unwind label %44

._ZNSt6vectorIdSaIdEE6resizeEm.exit8_crit_edge:   ; preds = %22
  %.pre19 = load i32, ptr %0, align 8
  %.pre21 = sext i32 %.pre19 to i64
  br label %_ZNSt6vectorIdSaIdEE6resizeEm.exit8

24:                                               ; preds = %_ZNSt6vectorIdSaIdEE6resizeEm.exit
  %25 = icmp ugt i64 %20, %.pre-phi
  br i1 %25, label %26, label %_ZNSt6vectorIdSaIdEE6resizeEm.exit8

26:                                               ; preds = %24
  %27 = getelementptr inbounds double, ptr %14, i64 %.pre-phi
  %.not.i.i6 = icmp eq ptr %15, %27
  br i1 %.not.i.i6, label %_ZNSt6vectorIdSaIdEE6resizeEm.exit8, label %28

28:                                               ; preds = %26
  store ptr %27, ptr %16, align 8
  br label %_ZNSt6vectorIdSaIdEE6resizeEm.exit8

_ZNSt6vectorIdSaIdEE6resizeEm.exit8:              ; preds = %._ZNSt6vectorIdSaIdEE6resizeEm.exit8_crit_edge, %28, %26, %24
  %.pre-phi22 = phi i64 [ %.pre21, %._ZNSt6vectorIdSaIdEE6resizeEm.exit8_crit_edge ], [ %.pre-phi, %28 ], [ %.pre-phi, %26 ], [ %.pre-phi, %24 ]
  %29 = getelementptr inbounds i8, ptr %0, i64 72
  %30 = load ptr, ptr %29, align 8
  %31 = load ptr, ptr %10, align 8
  %32 = ptrtoint ptr %30 to i64
  %33 = ptrtoint ptr %31 to i64
  %34 = sub i64 %32, %33
  %35 = ashr exact i64 %34, 3
  %36 = icmp ult i64 %35, %.pre-phi22
  br i1 %36, label %37, label %39

37:                                               ; preds = %_ZNSt6vectorIdSaIdEE6resizeEm.exit8
  %38 = sub nsw i64 %.pre-phi22, %35
  invoke void @_ZNSt6vectorIdSaIdEE17_M_default_appendEm(ptr noundef nonnull align 8 dereferenceable(24) %10, i64 noundef %38)
          to label %_ZNSt6vectorIdSaIdEE6resizeEm.exit11 unwind label %44

39:                                               ; preds = %_ZNSt6vectorIdSaIdEE6resizeEm.exit8
  %40 = icmp ugt i64 %35, %.pre-phi22
  br i1 %40, label %41, label %_ZNSt6vectorIdSaIdEE6resizeEm.exit11

41:                                               ; preds = %39
  %42 = getelementptr inbounds double, ptr %31, i64 %.pre-phi22
  %.not.i.i9 = icmp eq ptr %30, %42
  br i1 %.not.i.i9, label %_ZNSt6vectorIdSaIdEE6resizeEm.exit11, label %43

43:                                               ; preds = %41
  store ptr %42, ptr %29, align 8
  br label %_ZNSt6vectorIdSaIdEE6resizeEm.exit11

44:                                               ; preds = %37, %22, %12
  %45 = landingpad { ptr, i32 }
          cleanup
  %46 = load ptr, ptr %10, align 8
  %.not.i.i.i = icmp eq ptr %46, null
  br i1 %.not.i.i.i, label %_ZNSt6vectorIdSaIdEED2Ev.exit, label %47

47:                                               ; preds = %44
  tail call void @_ZdlPv(ptr noundef nonnull %46) #26
  br label %_ZNSt6vectorIdSaIdEED2Ev.exit

_ZNSt6vectorIdSaIdEED2Ev.exit:                    ; preds = %44, %47
  %48 = load ptr, ptr %9, align 8
  %.not.i.i.i12 = icmp eq ptr %48, null
  br i1 %.not.i.i.i12, label %_ZNSt6vectorIdSaIdEED2Ev.exit13, label %49

49:                                               ; preds = %_ZNSt6vectorIdSaIdEED2Ev.exit
  tail call void @_ZdlPv(ptr noundef nonnull %48) #26
  br label %_ZNSt6vectorIdSaIdEED2Ev.exit13

_ZNSt6vectorIdSaIdEED2Ev.exit13:                  ; preds = %_ZNSt6vectorIdSaIdEED2Ev.exit, %49
  %50 = load ptr, ptr %8, align 8
  %.not.i.i.i14 = icmp eq ptr %50, null
  br i1 %.not.i.i.i14, label %_ZNSt6vectorIdSaIdEED2Ev.exit15, label %51

51:                                               ; preds = %_ZNSt6vectorIdSaIdEED2Ev.exit13
  tail call void @_ZdlPv(ptr noundef nonnull %50) #26
  br label %_ZNSt6vectorIdSaIdEED2Ev.exit15

_ZNSt6vectorIdSaIdEED2Ev.exit15:                  ; preds = %_ZNSt6vectorIdSaIdEED2Ev.exit13, %51
  resume { ptr, i32 } %45

_ZNSt6vectorIdSaIdEE6resizeEm.exit11:             ; preds = %43, %41, %39, %37, %5
  ret void
}